target datalayout = "e-m:e-p270:32:32-p271:32:32-p272:64:64-i64:64-i128:128-f80:128-n8:16:32:64-S128"
target triple = "x86_64-pc-linux-gnu"

%struct.cipherlist_test_fixture = type { ptr, ptr, ptr }

@.str.2 = private unnamed_addr constant [30 x i8] c"test_default_cipherlist_clear\00", align 1
@.str.4 = private unnamed_addr constant [34 x i8] c"../openssl/test/cipherlist_test.c\00", align 1
@.str.18 = private unnamed_addr constant [52 x i8] c"SSL_CTX_set_cipher_list(fixture->server, \22no-such\22)\00", align 1
@.str.19 = private unnamed_addr constant [2 x i8] c"0\00", align 1
@.str.20 = private unnamed_addr constant [8 x i8] c"no-such\00", align 1
@.str.21 = private unnamed_addr constant [32 x i8] c"ERR_GET_REASON(ERR_get_error())\00", align 1
@.str.22 = private unnamed_addr constant [22 x i8] c"SSL_R_NO_CIPHER_MATCH\00", align 1
@.str.23 = private unnamed_addr constant [2 x i8] c"s\00", align 1
@.str.24 = private unnamed_addr constant [34 x i8] c"SSL_set_cipher_list(s, \22no-such\22)\00", align 1

; Function Attrs: nounwind uwtable
define internal void @tear_down(ptr noundef %0) #0 {
  %2 = alloca ptr, align 8
  store ptr %0, ptr %2, align 8, !tbaa !4
  %3 = load ptr, ptr %2, align 8, !tbaa !4
  %4 = icmp ne ptr %3, null
  br i1 %4, label %5, label %17

5:                                                ; preds = %1
  %6 = load ptr, ptr %2, align 8, !tbaa !4
  %7 = getelementptr inbounds nuw %struct.cipherlist_test_fixture, ptr %6, i32 0, i32 1
  %8 = load ptr, ptr %7, align 8, !tbaa !11
  call void @SSL_CTX_free(ptr noundef %8)
  %9 = load ptr, ptr %2, align 8, !tbaa !4
  %10 = getelementptr inbounds nuw %struct.cipherlist_test_fixture, ptr %9, i32 0, i32 2
  %11 = load ptr, ptr %10, align 8, !tbaa !15
  call void @SSL_CTX_free(ptr noundef %11)
  %12 = load ptr, ptr %2, align 8, !tbaa !4
  %13 = getelementptr inbounds nuw %struct.cipherlist_test_fixture, ptr %12, i32 0, i32 2
  store ptr null, ptr %13, align 8, !tbaa !15
  %14 = load ptr, ptr %2, align 8, !tbaa !4
  %15 = getelementptr inbounds nuw %struct.cipherlist_test_fixture, ptr %14, i32 0, i32 1
  store ptr null, ptr %15, align 8, !tbaa !11
  %16 = load ptr, ptr %2, align 8, !tbaa !4
  call void @CRYPTO_free(ptr noundef %16, ptr noundef @.str.4, i32 noundef 37)
  br label %17

17:                                               ; preds = %5, %1
  ret void
}

; Function Attrs: inlinehint nounwind uwtable
define internal i32 @ERR_GET_REASON(i64 noundef %0) #3 {
  %2 = alloca i32, align 4
  %3 = alloca i64, align 8
  store i64 %0, ptr %3, align 8, !tbaa !25
  %4 = load i64, ptr %3, align 8, !tbaa !25
  %5 = and i64 %4, 2147483648
  %6 = icmp ne i64 %5, 0
  br i1 %6, label %7, label %11

7:                                                ; preds = %1
  %8 = load i64, ptr %3, align 8, !tbaa !25
  %9 = and i64 %8, 2147483647
  %10 = trunc i64 %9 to i32
  store i32 %10, ptr %2, align 4
  br label %15

11:                                               ; preds = %1
  %12 = load i64, ptr %3, align 8, !tbaa !25
  %13 = and i64 %12, 8388607
  %14 = trunc i64 %13 to i32
  store i32 %14, ptr %2, align 4
  br label %15

15:                                               ; preds = %11, %7
  %16 = load i32, ptr %2, align 4
  ret i32 %16
}

; Function Attrs: nounwind uwtable
define internal i32 @test_default_cipherlist_clear() #0 {
  %1 = alloca i32, align 4
  %2 = alloca ptr, align 8
  %3 = alloca ptr, align 8
  %4 = alloca i32, align 4
  %5 = alloca i32, align 4
  call void @llvm.lifetime.start.p0(i64 8, ptr %2) #4
  store ptr null, ptr %2, align 8, !tbaa !16
  call void @llvm.lifetime.start.p0(i64 8, ptr %3) #4
  %6 = call ptr @set_up(ptr noundef @.str.2)
  store ptr %6, ptr %3, align 8, !tbaa !4
  call void @llvm.lifetime.start.p0(i64 4, ptr %4) #4
  store i32 0, ptr %4, align 4, !tbaa !9
  %7 = load ptr, ptr %3, align 8, !tbaa !4
  %8 = icmp eq ptr %7, null
  br i1 %8, label %9, label %10

9:                                                ; preds = %0
  store i32 0, ptr %1, align 4
  store i32 1, ptr %5, align 4
  br label %50

10:                                               ; preds = %0
  %11 = load ptr, ptr %3, align 8, !tbaa !4
  %12 = getelementptr inbounds nuw %struct.cipherlist_test_fixture, ptr %11, i32 0, i32 1
  %13 = load ptr, ptr %12, align 8, !tbaa !11
  %14 = call i32 @SSL_CTX_set_cipher_list(ptr noundef %13, ptr noundef @.str.20)
  %15 = call i32 @test_int_eq(ptr noundef @.str.4, i32 noundef 222, ptr noundef @.str.18, ptr noundef @.str.19, i32 noundef %14, i32 noundef 0)
  %16 = icmp ne i32 %15, 0
  br i1 %16, label %18, label %17

17:                                               ; preds = %10
  br label %46

18:                                               ; preds = %10
  %19 = call i64 @ERR_get_error()
  %20 = call i32 @ERR_GET_REASON(i64 noundef %19)
  %21 = call i32 @test_int_eq(ptr noundef @.str.4, i32 noundef 225, ptr noundef @.str.21, ptr noundef @.str.22, i32 noundef %20, i32 noundef 185)
  %22 = icmp ne i32 %21, 0
  br i1 %22, label %24, label %23

23:                                               ; preds = %18
  br label %46

24:                                               ; preds = %18
  %25 = load ptr, ptr %3, align 8, !tbaa !4
  %26 = getelementptr inbounds nuw %struct.cipherlist_test_fixture, ptr %25, i32 0, i32 2
  %27 = load ptr, ptr %26, align 8, !tbaa !15
  %28 = call ptr @SSL_new(ptr noundef %27)
  store ptr %28, ptr %2, align 8, !tbaa !16
  %29 = load ptr, ptr %2, align 8, !tbaa !16
  %30 = call i32 @test_ptr(ptr noundef @.str.4, i32 noundef 230, ptr noundef @.str.23, ptr noundef %29)
  %31 = icmp ne i32 %30, 0
  br i1 %31, label %33, label %32

32:                                               ; preds = %24
  br label %46

33:                                               ; preds = %24
  %34 = load ptr, ptr %2, align 8, !tbaa !16
  %35 = call i32 @SSL_set_cipher_list(ptr noundef %34, ptr noundef @.str.20)
  %36 = call i32 @test_int_eq(ptr noundef @.str.4, i32 noundef 233, ptr noundef @.str.24, ptr noundef @.str.19, i32 noundef %35, i32 noundef 0)
  %37 = icmp ne i32 %36, 0
  br i1 %37, label %39, label %38

38:                                               ; preds = %33
  br label %46

39:                                               ; preds = %33
  %40 = call i64 @ERR_get_error()
  %41 = call i32 @ERR_GET_REASON(i64 noundef %40)
  %42 = call i32 @test_int_eq(ptr noundef @.str.4, i32 noundef 237, ptr noundef @.str.21, ptr noundef @.str.22, i32 noundef %41, i32 noundef 185)
  %43 = icmp ne i32 %42, 0
  br i1 %43, label %45, label %44

44:                                               ; preds = %39
  br label %46

45:                                               ; preds = %39
  store i32 1, ptr %4, align 4, !tbaa !9
  br label %46

46:                                               ; preds = %45, %44, %38, %32, %23, %17
  %47 = load ptr, ptr %2, align 8, !tbaa !16
  call void @SSL_free(ptr noundef %47)
  %48 = load ptr, ptr %3, align 8, !tbaa !4
  call void @tear_down(ptr noundef %48)
  %49 = load i32, ptr %4, align 4, !tbaa !9
  store i32 %49, ptr %1, align 4
  store i32 1, ptr %5, align 4
  br label %50

50:                                               ; preds = %46, %9
  call void @llvm.lifetime.end.p0(i64 4, ptr %4) #4
  call void @llvm.lifetime.end.p0(i64 8, ptr %3) #4
  call void @llvm.lifetime.end.p0(i64 8, ptr %2) #4
  %51 = load i32, ptr %1, align 4
  ret i32 %51
}