; Function Attrs: nounwind uwtable
define internal range(i32 0, 2) i32 @test_default_cipherlist_clear() #0 {
  %1 = tail call fastcc ptr @set_up(ptr noundef nonnull @.str.2)
  %2 = icmp eq ptr %1, null
  br i1 %2, label %29, label %3

3:                                                ; preds = %0
  %4 = getelementptr inbounds nuw i8, ptr %1, i64 8
  %5 = load ptr, ptr %4, align 8, !tbaa !4
  %6 = tail call i32 @SSL_CTX_set_cipher_list(ptr noundef %5, ptr noundef nonnull @.str.20) #3
  %7 = tail call i32 @test_int_eq(ptr noundef nonnull @.str.4, i32 noundef 222, ptr noundef nonnull @.str.18, ptr noundef nonnull @.str.19, i32 noundef %6, i32 noundef 0) #3
  %.not = icmp eq i32 %7, 0
  br i1 %.not, label %tear_down.exit, label %8

8:                                                ; preds = %3
  %9 = tail call i64 @ERR_get_error() #3
  %10 = and i64 %9, 2147483648
  %.not.i = icmp eq i64 %10, 0
  %11 = trunc i64 %9 to i32
  %.0.v.i = select i1 %.not.i, i32 8388607, i32 2147483647
  %.0.i = and i32 %.0.v.i, %11
  %12 = tail call i32 @test_int_eq(ptr noundef nonnull @.str.4, i32 noundef 225, ptr noundef nonnull @.str.21, ptr noundef nonnull @.str.22, i32 noundef %.0.i, i32 noundef 185) #3
  %.not11 = icmp eq i32 %12, 0
  br i1 %.not11, label %tear_down.exit, label %13

13:                                               ; preds = %8
  %14 = getelementptr inbounds nuw i8, ptr %1, i64 16
  %15 = load ptr, ptr %14, align 8, !tbaa !11
  %16 = tail call ptr @SSL_new(ptr noundef %15) #3
  %17 = tail call i32 @test_ptr(ptr noundef nonnull @.str.4, i32 noundef 230, ptr noundef nonnull @.str.23, ptr noundef %16) #3
  %.not12 = icmp eq i32 %17, 0
  br i1 %.not12, label %tear_down.exit, label %18

18:                                               ; preds = %13
  %19 = tail call i32 @SSL_set_cipher_list(ptr noundef %16, ptr noundef nonnull @.str.20) #3
  %20 = tail call i32 @test_int_eq(ptr noundef nonnull @.str.4, i32 noundef 233, ptr noundef nonnull @.str.24, ptr noundef nonnull @.str.19, i32 noundef %19, i32 noundef 0) #3
  %.not13 = icmp eq i32 %20, 0
  br i1 %.not13, label %tear_down.exit, label %21

21:                                               ; preds = %18
  %22 = tail call i64 @ERR_get_error() #3
  %23 = and i64 %22, 2147483648
  %.not.i15 = icmp eq i64 %23, 0
  %24 = trunc i64 %22 to i32
  %.0.v.i16 = select i1 %.not.i15, i32 8388607, i32 2147483647
  %.0.i17 = and i32 %.0.v.i16, %24
  %25 = tail call i32 @test_int_eq(ptr noundef nonnull @.str.4, i32 noundef 237, ptr noundef nonnull @.str.21, ptr noundef nonnull @.str.22, i32 noundef %.0.i17, i32 noundef 185) #3
  %.not14 = icmp ne i32 %25, 0
  %spec.select = zext i1 %.not14 to i32
  br label %tear_down.exit

tear_down.exit:                                   ; preds = %21, %18, %13, %8, %3
  %.09 = phi ptr [ %16, %18 ], [ %16, %13 ], [ null, %8 ], [ null, %3 ], [ %16, %21 ]
  %.0 = phi i32 [ 0, %18 ], [ 0, %13 ], [ 0, %8 ], [ 0, %3 ], [ %spec.select, %21 ]
  tail call void @SSL_free(ptr noundef %.09) #3
  %26 = load ptr, ptr %4, align 8, !tbaa !4
  tail call void @SSL_CTX_free(ptr noundef %26) #3
  %27 = getelementptr inbounds nuw i8, ptr %1, i64 16
  %28 = load ptr, ptr %27, align 8, !tbaa !11
  tail call void @SSL_CTX_free(ptr noundef %28) #3
  tail call void @llvm.memset.p0.i64(ptr noundef nonnull align 8 dereferenceable(16) %4, i8 0, i64 16, i1 false)
  tail call void @CRYPTO_free(ptr noundef nonnull %1, ptr noundef nonnull @.str.4, i32 noundef 37) #3
  br label %29

29:                                               ; preds = %0, %tear_down.exit
  %.08 = phi i32 [ %.0, %tear_down.exit ], [ 0, %0 ]
  ret i32 %.08
}